target datalayout = "e-m:e-p270:32:32-p271:32:32-p272:64:64-i64:64-i128:128-f80:128-n8:16:32:64-S128"
target triple = "x86_64-pc-linux-gnu"

%class.JVMCIEnv = type { ptr, i8, i8, ptr, i8, i8, ptr, i32, i32, ptr, ptr }

; Function Attrs: mustprogress nounwind uwtable
define linkonce_odr hidden noundef zeroext i1 @_ZN8JVMCIEnv10is_hotspotEv(ptr noundef nonnull align 8 dereferenceable(64) %0) #1 comdat align 2 {
  %2 = alloca ptr, align 8
  store ptr %0, ptr %2, align 8
  %3 = load ptr, ptr %2, align 8
  %4 = getelementptr inbounds %class.JVMCIEnv, ptr %3, i32 0, i32 4
  %5 = load i8, ptr %4, align 8
  %6 = trunc i8 %5 to i1
  ret i1 %6
}

; Function Attrs: mustprogress nounwind uwtable
define hidden noundef i32 @_ZN8JVMCIEnv37get_BytecodeFrame_AFTER_EXCEPTION_BCIEv(ptr noundef nonnull align 8 dereferenceable(64) %0) #1 align 2 {
  %2 = alloca i32, align 4
  %3 = alloca ptr, align 8
  store ptr %0, ptr %3, align 8
  %4 = load ptr, ptr %3, align 8
  %5 = call noundef zeroext i1 @_ZN8JVMCIEnv10is_hotspotEv(ptr noundef nonnull align 8 dereferenceable(64) %4)
  br i1 %5, label %6, label %8

6:                                                ; preds = %1
  %7 = call noundef i32 @_ZN12HotSpotJVMCI13BytecodeFrame23get_AFTER_EXCEPTION_BCIEP8JVMCIEnv(ptr noundef %4)
  store i32 %7, ptr %2, align 4
  br label %10

8:                                                ; preds = %1
  %9 = call noundef i32 @_ZN8JNIJVMCI13BytecodeFrame23get_AFTER_EXCEPTION_BCIEP8JVMCIEnv(ptr noundef %4)
  store i32 %9, ptr %2, align 4
  br label %10

10:                                               ; preds = %8, %6
  %11 = load i32, ptr %2, align 4
  ret i32 %11
}